; Function Attrs: mustprogress uwtable
define internal void @"_ZNSt17_Function_handlerIFviEZN11OpenImageIO6v3_1_011thread_pool4pushIZNS2_10TIFFOutput11write_tilesEiiiiiiNS2_8TypeDescEPKvlllE3$_0EESt6futureIDTclfL0p_Li0EEEEOT_EUliE_E9_M_invokeERKSt9_Any_dataOi"(ptr noundef nonnull readonly align 8 captures(none) dereferenceable(16) %0, ptr noundef nonnull readonly align 4 captures(none) dereferenceable(4) %1) #5 align 2 {
  %3 = alloca i32, align 4
  %.val = load ptr, ptr %0, align 8, !tbaa !259
  %.val2 = load ptr, ptr %.val, align 8, !tbaa !257
  %.val3 = load i32, ptr %1, align 4, !tbaa !114
  %.val2.val = load ptr, ptr %.val2, align 8, !tbaa !254
  call void @llvm.lifetime.start.p0(i64 4, ptr nonnull %3)
  store i32 %.val3, ptr %3, align 4, !tbaa !114
  %.not.i.i.i.i.i = icmp eq ptr %.val2.val, null
  br i1 %.not.i.i.i.i.i, label %4, label %"_ZSt10__invoke_rIvRZN11OpenImageIO6v3_1_011thread_pool4pushIZNS1_10TIFFOutput11write_tilesEiiiiiiNS1_8TypeDescEPKvlllE3$_0EESt6futureIDTclfL0p_Li0EEEEOT_EUliE_JiEENSt9enable_ifIX16is_invocable_r_vISC_T0_DpT1_EESC_E4typeEOSH_DpOSI_.exit"

4:                                                ; preds = %2
  tail call void @_ZSt20__throw_future_errori(i32 noundef 3) #34
  unreachable

"_ZSt10__invoke_rIvRZN11OpenImageIO6v3_1_011thread_pool4pushIZNS1_10TIFFOutput11write_tilesEiiiiiiNS1_8TypeDescEPKvlllE3$_0EESt6futureIDTclfL0p_Li0EEEEOT_EUliE_JiEENSt9enable_ifIX16is_invocable_r_vISC_T0_DpT1_EESC_E4typeEOSH_DpOSI_.exit": ; preds = %2
  %5 = load ptr, ptr %.val2.val, align 8, !tbaa !21
  %6 = getelementptr inbounds nuw i8, ptr %5, i64 32
  %7 = load ptr, ptr %6, align 8
  call void %7(ptr noundef nonnull align 8 dereferenceable(40) %.val2.val, ptr noundef nonnull align 4 dereferenceable(4) %3)
  call void @llvm.lifetime.end.p0(i64 4, ptr nonnull %3)
  ret void
}